target datalayout = "e-m:e-p270:32:32-p271:32:32-p272:64:64-i64:64-i128:128-f80:128-n8:16:32:64-S128"
target triple = "x86_64-pc-linux-gnu"

%struct.IDAMemRec = type { double, ptr, ptr, i32, double, double, ptr, i32, ptr, ptr, i32, ptr, ptr, i32, i32, double, double, ptr, i32, i32, i32, ptr, ptr, i32, ptr, ptr, ptr, i32, double, i32, i32, double, ptr, ptr, i32, ptr, ptr, i32, i32, i32, double, ptr, ptr, [6 x ptr], [6 x double], [6 x double], [6 x double], [6 x double], [6 x double], ptr, ptr, ptr, ptr, ptr, ptr, ptr, ptr, ptr, ptr, ptr, ptr, ptr, ptr, ptr, [6 x ptr], ptr, ptr, ptr, ptr, [6 x ptr], ptr, ptr, ptr, ptr, ptr, ptr, ptr, ptr, ptr, ptr, ptr, ptr, ptr, ptr, [6 x ptr], ptr, ptr, ptr, ptr, ptr, double, ptr, ptr, i32, i32, i32, i32, i32, i32, i32, double, double, double, i32, double, i32, i32, i32, i32, double, double, double, double, double, double, double, double, double, double, double, double, double, double, i32, i32, i32, i32, i32, i64, double, i32, i64, i64, i64, i64, i64, i64, i64, i64, i64, i64, i64, i64, i64, i64, i64, i64, i64, i64, i64, i64, i64, i64, i64, i64, ptr, ptr, ptr, i32, i32, i32, i32, i32, i32, i32, i32, i32, i32, i32, i32, i32, ptr, ptr, ptr, ptr, ptr, ptr, i32, i32, i32, i32, i32, i32, double, double, double, ptr, i32, ptr, ptr, double, double, double, ptr, ptr, ptr, double, double, i32, i32, i64, ptr, i32, i32, ptr, i32 }

@.str = private unnamed_addr constant [5 x i8] c"IDAS\00", align 1
@.str.4 = private unnamed_addr constant [24 x i8] c"ida_mem = NULL illegal.\00", align 1
@.str.18 = private unnamed_addr constant [52 x i8] c"Illegal attempt to call before calling IDAQuadInit.\00", align 1
@.str.19 = private unnamed_addr constant [20 x i8] c"IDAQuadSStolerances\00", align 1
@.str.20 = private unnamed_addr constant [19 x i8] c"rtolQ < 0 illegal.\00", align 1
@.str.21 = private unnamed_addr constant [43 x i8] c"atolQ has negative component(s) (illegal).\00", align 1

; Function Attrs: nounwind uwtable
define i32 @IDAQuadSStolerances(ptr noundef %0, double noundef %1, double noundef %2) #0 {
  %4 = alloca i32, align 4
  %5 = alloca ptr, align 8
  %6 = alloca double, align 8
  %7 = alloca double, align 8
  %8 = alloca ptr, align 8
  %9 = alloca i32, align 4
  store ptr %0, ptr %5, align 8, !tbaa !91
  store double %1, ptr %6, align 8, !tbaa !92
  store double %2, ptr %7, align 8, !tbaa !92
  call void @llvm.lifetime.start.p0(i64 8, ptr %8) #8
  %10 = load ptr, ptr %5, align 8, !tbaa !91
  %11 = icmp eq ptr %10, null
  br i1 %11, label %12, label %13

12:                                               ; preds = %3
  call void (ptr, i32, ptr, ptr, ptr, ...) @IDAProcessError(ptr noundef null, i32 noundef -20, ptr noundef @.str, ptr noundef @.str.19, ptr noundef @.str.4)
  store i32 -20, ptr %4, align 4
  store i32 1, ptr %9, align 4
  br label %40

13:                                               ; preds = %3
  %14 = load ptr, ptr %5, align 8, !tbaa !91
  store ptr %14, ptr %8, align 8, !tbaa !3
  %15 = load ptr, ptr %8, align 8, !tbaa !3
  %16 = getelementptr inbounds nuw %struct.IDAMemRec, ptr %15, i32 0, i32 164
  %17 = load i32, ptr %16, align 8, !tbaa !80
  %18 = icmp eq i32 %17, 0
  br i1 %18, label %19, label %21

19:                                               ; preds = %13
  %20 = load ptr, ptr %8, align 8, !tbaa !3
  call void (ptr, i32, ptr, ptr, ptr, ...) @IDAProcessError(ptr noundef %20, i32 noundef -30, ptr noundef @.str, ptr noundef @.str.19, ptr noundef @.str.18)
  store i32 -30, ptr %4, align 4
  store i32 1, ptr %9, align 4
  br label %40

21:                                               ; preds = %13
  %22 = load double, ptr %6, align 8, !tbaa !92
  %23 = fcmp olt double %22, 0.000000e+00
  br i1 %23, label %24, label %26

24:                                               ; preds = %21
  %25 = load ptr, ptr %8, align 8, !tbaa !3
  call void (ptr, i32, ptr, ptr, ptr, ...) @IDAProcessError(ptr noundef %25, i32 noundef -22, ptr noundef @.str, ptr noundef @.str.19, ptr noundef @.str.20)
  store i32 -22, ptr %4, align 4
  store i32 1, ptr %9, align 4
  br label %40

26:                                               ; preds = %21
  %27 = load double, ptr %7, align 8, !tbaa !92
  %28 = fcmp olt double %27, 0.000000e+00
  br i1 %28, label %29, label %31

29:                                               ; preds = %26
  %30 = load ptr, ptr %8, align 8, !tbaa !3
  call void (ptr, i32, ptr, ptr, ptr, ...) @IDAProcessError(ptr noundef %30, i32 noundef -22, ptr noundef @.str, ptr noundef @.str.19, ptr noundef @.str.21)
  store i32 -22, ptr %4, align 4
  store i32 1, ptr %9, align 4
  br label %40

31:                                               ; preds = %26
  %32 = load ptr, ptr %8, align 8, !tbaa !3
  %33 = getelementptr inbounds nuw %struct.IDAMemRec, ptr %32, i32 0, i32 14
  store i32 1, ptr %33, align 4, !tbaa !52
  %34 = load double, ptr %6, align 8, !tbaa !92
  %35 = load ptr, ptr %8, align 8, !tbaa !3
  %36 = getelementptr inbounds nuw %struct.IDAMemRec, ptr %35, i32 0, i32 15
  store double %34, ptr %36, align 8, !tbaa !170
  %37 = load double, ptr %7, align 8, !tbaa !92
  %38 = load ptr, ptr %8, align 8, !tbaa !3
  %39 = getelementptr inbounds nuw %struct.IDAMemRec, ptr %38, i32 0, i32 16
  store double %37, ptr %39, align 8, !tbaa !171
  store i32 0, ptr %4, align 4
  store i32 1, ptr %9, align 4
  br label %40

40:                                               ; preds = %31, %29, %24, %19, %12
  call void @llvm.lifetime.end.p0(i64 8, ptr %8) #8
  %41 = load i32, ptr %4, align 4
  ret i32 %41
}